"_ZN11YaQDateTime10fromStringERK7QStringN2Qt10DateFormatE",
"_ZN11YaQDateTime10fromStringERK7QStringS2_",
"_ZN11YaQDateTime10fromTime_tEj",
"_ZN11YaQDateTime10fromTime_tEjN2Qt8TimeSpecEi",
"_ZN11YaQDateTime10fromTime_tEjRK9QTimeZone",
"_ZN11YaQDateTime11setTimeSpecEN2Qt8TimeSpecE",
"_ZN11YaQDateTime11setTimeZoneERK9QTimeZone",
"_ZN11YaQDateTime12setUtcOffsetEi",
"_ZN11YaQDateTime15currentDateTimeEv",
"_ZN11YaQDateTime16setOffsetFromUtcEi",
"_ZN11YaQDateTime18currentDateTimeUtcEv",
"_ZN11YaQDateTime18setMSecsSinceEpochEx",
"_ZN11YaQDateTime19fromMSecsSinceEpochEx",
"_ZN11YaQDateTime19fromMSecsSinceEpochExN2Qt8TimeSpecEi",
"_ZN11YaQDateTime19fromMSecsSinceEpochExRK9QTimeZone",
"_ZN11YaQDateTime22currentMSecsSinceEpochEv",
"_ZN11YaQDateTime4swapER9QDateTime",
"_ZN11YaQDateTime7setDateERK5QDate",
"_ZN11YaQDateTime7setTimeERK5QTime",
"_ZN11YaQDateTime9setTime_tEj",
"_ZN11YaQDateTimeC1ERK5QDate",
"_ZN11YaQDateTimeC1ERK5QDateRK5QTimeN2Qt8TimeSpecE",
"_ZN11YaQDateTimeC1ERK5QDateRK5QTimeN2Qt8TimeSpecEi",
"_ZN11YaQDateTimeC1ERK5QDateRK5QTimeRK9QTimeZone",
"_ZN11YaQDateTimeC1ERK9QDateTime",
"_ZN11YaQDateTimeC1Ev",
"_ZN11YaQDateTimeC2ERK5QDate",
"_ZN11YaQDateTimeC2ERK5QDateRK5QTimeN2Qt8TimeSpecE",
"_ZN11YaQDateTimeC2ERK5QDateRK5QTimeN2Qt8TimeSpecEi",
"_ZN11YaQDateTimeC2ERK5QDateRK5QTimeRK9QTimeZone",
"_ZN11YaQDateTimeC2ERK9QDateTime",
"_ZN11YaQDateTimeC2Ev",
"_ZN11YaQDateTimeD1Ev",
"_ZN11YaQDateTimeD2Ev",
"_ZN12YaQByteArray10fromBase64ERK10QByteArray",
"_ZN12YaQByteArray10fromBase64ERK10QByteArray6QFlagsINS0_12Base64OptionEE",
"_ZN12YaQByteArray10push_frontEc",
"_ZN12YaQByteArray10push_frontEPKc",
"_ZN12YaQByteArray10push_frontERK10QByteArray",
"_ZN12YaQByteArray10setRawDataEPKcj",
"_ZN12YaQByteArray11fromRawDataEPKci",
"_ZN12YaQByteArray19fromPercentEncodingERK10QByteArrayc",
"_ZN12YaQByteArray3endEv",
"_ZN12YaQByteArray4chopEi",
"_ZN12YaQByteArray4dataEv",
"_ZN12YaQByteArray4fillEci",
"_ZN12YaQByteArray4swapER10QByteArray",
"_ZN12YaQByteArray5beginEv",
"_ZN12YaQByteArray5clearEv",
"_ZN12YaQByteArray6appendEc",
"_ZN12YaQByteArray6appendEPKc",
"_ZN12YaQByteArray6appendEPKci",
"_ZN12YaQByteArray6appendERK10QByteArray",
"_ZN12YaQByteArray6appendERK7QString",
"_ZN12YaQByteArray6detachEv",
"_ZN12YaQByteArray6insertEic",
"_ZN12YaQByteArray6insertEiPKc",
"_ZN12YaQByteArray6insertEiPKci",
"_ZN12YaQByteArray6insertEiRK10QByteArray",
"_ZN12YaQByteArray6insertEiRK7QString",
"_ZN12YaQByteArray6numberEdci",
"_ZN12YaQByteArray6numberEii",
"_ZN12YaQByteArray6numberEji",
"_ZN12YaQByteArray6numberExi",
"_ZN12YaQByteArray6numberEyi",
"_ZN12YaQByteArray6removeEii",
"_ZN12YaQByteArray6resizeEi",
"_ZN12YaQByteArray6setNumEdci",
"_ZN12YaQByteArray6setNumEfci",
"_ZN12YaQByteArray6setNumEii",
"_ZN12YaQByteArray6setNumEji",
"_ZN12YaQByteArray6setNumEsi",
"_ZN12YaQByteArray6setNumEti",
"_ZN12YaQByteArray6setNumExi",
"_ZN12YaQByteArray6setNumEyi",
"_ZN12YaQByteArray7fromHexERK10QByteArray",
"_ZN12YaQByteArray7prependEc",
"_ZN12YaQByteArray7prependEPKc",
"_ZN12YaQByteArray7prependEPKci",
"_ZN12YaQByteArray7prependERK10QByteArray",
"_ZN12YaQByteArray7replaceEcc",
"_ZN12YaQByteArray7replaceEcPKc",
"_ZN12YaQByteArray7replaceEcRK10QByteArray",
"_ZN12YaQByteArray7replaceEcRK7QString",
"_ZN12YaQByteArray7replaceEiiPKc",
"_ZN12YaQByteArray7replaceEiiPKci",
"_ZN12YaQByteArray7replaceEiiRK10QByteArray",
"_ZN12YaQByteArray7replaceEPKciS1_i",
"_ZN12YaQByteArray7replaceEPKcRK10QByteArray",
"_ZN12YaQByteArray7replaceEPKcS1_",
"_ZN12YaQByteArray7replaceERK10QByteArrayPKc",
"_ZN12YaQByteArray7replaceERK10QByteArrayS2_",
"_ZN12YaQByteArray7replaceERK7QStringPKc",
"_ZN12YaQByteArray7replaceERK7QStringRK10QByteArray",
"_ZN12YaQByteArray7reserveEi",
"_ZN12YaQByteArray7squeezeEv",
"_ZN12YaQByteArray8truncateEi",
"_ZN12YaQByteArray9push_backEc",
"_ZN12YaQByteArray9push_backEPKc",
"_ZN12YaQByteArray9push_backERK10QByteArray",
"_ZN12YaQByteArrayC1E17QByteArrayDataPtr",
"_ZN12YaQByteArrayC1Eic",
"_ZN12YaQByteArrayC1EiN2Qt14InitializationE",
"_ZN12YaQByteArrayC1EPKci",
"_ZN12YaQByteArrayC1ERK10QByteArray",
"_ZN12YaQByteArrayC1Ev",
"_ZN12YaQByteArrayC2E17QByteArrayDataPtr",
"_ZN12YaQByteArrayC2Eic",
"_ZN12YaQByteArrayC2EiN2Qt14InitializationE",
"_ZN12YaQByteArrayC2EPKci",
"_ZN12YaQByteArrayC2ERK10QByteArray",
"_ZN12YaQByteArrayC2Ev",
"_ZN12YaQByteArrayD1Ev",
"_ZN12YaQByteArrayD2Ev",
"_ZN12YaQTcpServer11acceptErrorEN15QAbstractSocket11SocketErrorE",
"_ZN12YaQTcpServer13newConnectionEv",
"_ZN12YaQTcpServer14pauseAcceptingEv",
"_ZN12YaQTcpServer15resumeAcceptingEv",
"_ZN12YaQTcpServer18incomingConnectionEi",
"_ZN12YaQTcpServer19setSocketDescriptorEi",
"_ZN12YaQTcpServer20addPendingConnectionEP10QTcpSocket",
"_ZN12YaQTcpServer20waitForNewConnectionEiPb",
"_ZN12YaQTcpServer21nextPendingConnectionEv",
"_ZN12YaQTcpServer24setMaxPendingConnectionsEi",
"_ZN12YaQTcpServer5closeEv",
"_ZN12YaQTcpServer6listenERK12QHostAddresst",
"_ZN12YaQTcpServer8setProxyERK13QNetworkProxy",
"_ZN12YaQTcpServerC1EP7QObject",
"_ZN12YaQTcpServerC2EP7QObject",
"_ZN12YaQTcpServerD0Ev",
"_ZN12YaQTcpServerD1Ev",
"_ZN12YaQTcpServerD2Ev",
"_ZN12YaQTcpSocketC1EP7QObject",
"_ZN12YaQTcpSocketC1ER17QTcpSocketPrivateP7QObject",
"_ZN12YaQTcpSocketC2EP7QObject",
"_ZN12YaQTcpSocketC2ER17QTcpSocketPrivateP7QObject",
"_ZN12YaQTcpSocketD0Ev",
"_ZN12YaQTcpSocketD1Ev",
"_ZN12YaQTcpSocketD2Ev",
"_ZN13YaQMainWindow10addToolBarEN2Qt11ToolBarAreaEP8QToolBar",
"_ZN13YaQMainWindow10addToolBarEP8QToolBar",
"_ZN13YaQMainWindow10addToolBarERK7QString",
"_ZN13YaQMainWindow10setMenuBarEP8QMenuBar",
"_ZN13YaQMainWindow11setAnimatedEb",
"_ZN13YaQMainWindow11setIconSizeERK5QSize",
"_ZN13YaQMainWindow11setTabShapeEN10QTabWidget8TabShapeE",
"_ZN13YaQMainWindow12restoreStateERK10QByteArrayi",
"_ZN13YaQMainWindow12setStatusBarEP10QStatusBar",
"_ZN13YaQMainWindow13addDockWidgetEN2Qt14DockWidgetAreaEP11QDockWidget",
"_ZN13YaQMainWindow13addDockWidgetEN2Qt14DockWidgetAreaEP11QDockWidgetNS0_11OrientationE",
"_ZN13YaQMainWindow13insertToolBarEP8QToolBarS1_",
"_ZN13YaQMainWindow13removeToolBarEP8QToolBar",
"_ZN13YaQMainWindow13setMenuWidgetEP7QWidget",
"_ZN13YaQMainWindow14setDockOptionsE6QFlagsIN11QMainWindow10DockOptionEE",
"_ZN13YaQMainWindow14setTabPositionE6QFlagsIN2Qt14DockWidgetAreaEEN10QTabWidget11TabPositionE",
"_ZN13YaQMainWindow15addToolBarBreakEN2Qt11ToolBarAreaE",
"_ZN13YaQMainWindow15createPopupMenuEv",
"_ZN13YaQMainWindow15iconSizeChangedERK5QSize",
"_ZN13YaQMainWindow15setDocumentModeEb",
"_ZN13YaQMainWindow15splitDockWidgetEP11QDockWidgetS1_N2Qt11OrientationE",
"_ZN13YaQMainWindow16contextMenuEventEP17QContextMenuEvent",
"_ZN13YaQMainWindow16removeDockWidgetEP11QDockWidget",
"_ZN13YaQMainWindow16setCentralWidgetEP7QWidget",
"_ZN13YaQMainWindow16tabifyDockWidgetEP11QDockWidgetS1_",
"_ZN13YaQMainWindow17restoreDockWidgetEP11QDockWidget",
"_ZN13YaQMainWindow17takeCentralWidgetEv",
"_ZN13YaQMainWindow18insertToolBarBreakEP8QToolBar",
"_ZN13YaQMainWindow18removeToolBarBreakEP8QToolBar",
"_ZN13YaQMainWindow18setToolButtonStyleEN2Qt15ToolButtonStyleE",
"_ZN13YaQMainWindow21setDockNestingEnabledEb",
"_ZN13YaQMainWindow22toolButtonStyleChangedEN2Qt15ToolButtonStyleE",
"_ZN13YaQMainWindow30setUnifiedTitleAndToolBarOnMacEb",
"_ZN13YaQMainWindow5eventEP6QEvent",
"_ZN13YaQMainWindow9setCornerEN2Qt6CornerENS0_14DockWidgetAreaE",
"_ZN13YaQMainWindowC1EP7QWidget6QFlagsIN2Qt10WindowTypeEE",
"_ZN13YaQMainWindowC2EP7QWidget6QFlagsIN2Qt10WindowTypeEE",
"_ZN13YaQMainWindowD0Ev",
"_ZN13YaQMainWindowD1Ev",
"_ZN13YaQMainWindowD2Ev",
"_ZN14YaQHostAddress10setAddressEj",
"_ZN14YaQHostAddress10setAddressEPh",
"_ZN14YaQHostAddress10setAddressEPK8sockaddr",
"_ZN14YaQHostAddress10setAddressERK12QIPv6Address",
"_ZN14YaQHostAddress10setAddressERK7QString",
"_ZN14YaQHostAddress10setScopeIdERK7QString",
"_ZN14YaQHostAddress11parseSubnetERK7QString",
"_ZN14YaQHostAddress5clearEv",
"_ZN14YaQHostAddressC1Ej",
"_ZN14YaQHostAddressC1EN12QHostAddress14SpecialAddressE",
"_ZN14YaQHostAddressC1EPh",
"_ZN14YaQHostAddressC1EPK8sockaddr",
"_ZN14YaQHostAddressC1ERK12QHostAddress",
"_ZN14YaQHostAddressC1ERK12QIPv6Address",
"_ZN14YaQHostAddressC1ERK7QString",
"_ZN14YaQHostAddressC1Ev",
"_ZN14YaQHostAddressC2Ej",
"_ZN14YaQHostAddressC2EN12QHostAddress14SpecialAddressE",
"_ZN14YaQHostAddressC2EPh",
"_ZN14YaQHostAddressC2EPK8sockaddr",
"_ZN14YaQHostAddressC2ERK12QHostAddress",
"_ZN14YaQHostAddressC2ERK12QIPv6Address",
"_ZN14YaQHostAddressC2ERK7QString",
"_ZN14YaQHostAddressC2Ev",
"_ZN14YaQHostAddressD1Ev",
"_ZN14YaQHostAddressD2Ev",
"_ZN17YaQAbstractSocket11setPeerNameERK7QString",
"_ZN17YaQAbstractSocket11setPeerPortEt",
"_ZN17YaQAbstractSocket12disconnectedEv",
"_ZN17YaQAbstractSocket12readLineDataEPcx",
"_ZN17YaQAbstractSocket12setLocalPortEt",
"_ZN17YaQAbstractSocket12setPauseModeE6QFlagsIN15QAbstractSocket9PauseModeEE",
"_ZN17YaQAbstractSocket12socketOptionEN15QAbstractSocket12SocketOptionE",
"_ZN17YaQAbstractSocket12stateChangedEN15QAbstractSocket11SocketStateE",
"_ZN17YaQAbstractSocket13connectToHostERK12QHostAddresst6QFlagsIN9QIODevice12OpenModeFlagEE",
"_ZN17YaQAbstractSocket13connectToHostERK7QStringt6QFlagsIN9QIODevice12OpenModeFlagEEN15QAbstractSocket20NetworkLayerProtocolE",
"_ZN17YaQAbstractSocket14setPeerAddressERK12QHostAddress",
"_ZN17YaQAbstractSocket14setSocketErrorEN15QAbstractSocket11SocketErrorE",
"_ZN17YaQAbstractSocket14setSocketStateEN15QAbstractSocket11SocketStateE",
"_ZN17YaQAbstractSocket15setLocalAddressERK12QHostAddress",
"_ZN17YaQAbstractSocket15setSocketOptionEN15QAbstractSocket12SocketOptionERK8QVariant",
"_ZN17YaQAbstractSocket16waitForConnectedEi",
"_ZN17YaQAbstractSocket16waitForReadyReadEi",
"_ZN17YaQAbstractSocket17setReadBufferSizeEx",
"_ZN17YaQAbstractSocket18disconnectFromHostEv",
"_ZN17YaQAbstractSocket19setSocketDescriptorEiN15QAbstractSocket11SocketStateE6QFlagsIN9QIODevice12OpenModeFlagEE",
"_ZN17YaQAbstractSocket19waitForBytesWrittenEi",
"_ZN17YaQAbstractSocket19waitForDisconnectedEi",
"_ZN17YaQAbstractSocket27proxyAuthenticationRequiredERK13QNetworkProxyP14QAuthenticator",
"_ZN17YaQAbstractSocket4bindERK12QHostAddresst6QFlagsIN15QAbstractSocket8BindFlagEE",
"_ZN17YaQAbstractSocket4bindEt6QFlagsIN15QAbstractSocket8BindFlagEE",
"_ZN17YaQAbstractSocket5abortEv",
"_ZN17YaQAbstractSocket5closeEv",
"_ZN17YaQAbstractSocket5errorEN15QAbstractSocket11SocketErrorE",
"_ZN17YaQAbstractSocket5flushEv",
"_ZN17YaQAbstractSocket6resumeEv",
"_ZN17YaQAbstractSocket8readDataEPcx",
"_ZN17YaQAbstractSocket8setProxyERK13QNetworkProxy",
"_ZN17YaQAbstractSocket9connectedEv",
"_ZN17YaQAbstractSocket9hostFoundEv",
"_ZN17YaQAbstractSocket9writeDataEPKcx",
"_ZN17YaQAbstractSocketC1EN15QAbstractSocket10SocketTypeEP7QObject",
"_ZN17YaQAbstractSocketC1EN15QAbstractSocket10SocketTypeER22QAbstractSocketPrivateP7QObject",
"_ZN17YaQAbstractSocketC2EN15QAbstractSocket10SocketTypeEP7QObject",
"_ZN17YaQAbstractSocketC2EN15QAbstractSocket10SocketTypeER22QAbstractSocketPrivateP7QObject",
"_ZN17YaQAbstractSocketD0Ev",
"_ZN17YaQAbstractSocketD1Ev",
"_ZN17YaQAbstractSocketD2Ev",
"_ZN17YaQGuiApplication10allWindowsEv",
"_ZN17YaQGuiApplication10setPaletteERK8QPalette",
"_ZN17YaQGuiApplication10styleHintsEv",
"_ZN17YaQGuiApplication10topLevelAtERK6QPoint",
"_ZN17YaQGuiApplication10windowIconEv",
"_ZN17YaQGuiApplication11focusObjectEv",
"_ZN17YaQGuiApplication11focusWindowEv",
"_ZN17YaQGuiApplication11inputMethodEv",
"_ZN17YaQGuiApplication11modalWindowEv",
"_ZN17YaQGuiApplication11screenAddedEP7QScreen",
"_ZN17YaQGuiApplication12mouseButtonsEv",
"_ZN17YaQGuiApplication12platformNameEv",
"_ZN17YaQGuiApplication13compressEventEP6QEventP7QObjectP14QPostEventList",
"_ZN17YaQGuiApplication13isLeftToRightEv",
"_ZN17YaQGuiApplication13isRightToLeftEv",
"_ZN17YaQGuiApplication13primaryScreenEv",
"_ZN17YaQGuiApplication13setWindowIconERK5QIcon",
"_ZN17YaQGuiApplication14overrideCursorEv",
"_ZN17YaQGuiApplication15layoutDirectionEv",
"_ZN17YaQGuiApplication15topLevelWindowsEv",
"_ZN17YaQGuiApplication16applicationStateEv",
"_ZN17YaQGuiApplication16lastWindowClosedEv",
"_ZN17YaQGuiApplication16saveStateRequestER15QSessionManager",
"_ZN17YaQGuiApplication17commitDataRequestER15QSessionManager",
"_ZN17YaQGuiApplication17keyboardModifiersEv",
"_ZN17YaQGuiApplication17setOverrideCursorERK7QCursor",
"_ZN17YaQGuiApplication18focusObjectChangedEP7QObject",
"_ZN17YaQGuiApplication18focusWindowChangedEP7QWindow",
"_ZN17YaQGuiApplication18setLayoutDirectionEN2Qt15LayoutDirectionE",
"_ZN17YaQGuiApplication19fontDatabaseChangedEv",
"_ZN17YaQGuiApplication20changeOverrideCursorERK7QCursor",
"_ZN17YaQGuiApplication20desktopSettingsAwareEv",
"_ZN17YaQGuiApplication21restoreOverrideCursorEv",
"_ZN17YaQGuiApplication22applicationDisplayNameEv",
"_ZN17YaQGuiApplication22queryKeyboardModifiersEv",
"_ZN17YaQGuiApplication22quitOnLastWindowClosedEv",
"_ZN17YaQGuiApplication23applicationStateChangedEN2Qt16ApplicationStateE",
"_ZN17YaQGuiApplication23platformNativeInterfaceEv",
"_ZN17YaQGuiApplication23setDesktopSettingsAwareEb",
"_ZN17YaQGuiApplication25setApplicationDisplayNameERK7QString",
"_ZN17YaQGuiApplication25setQuitOnLastWindowClosedEb",
"_ZN17YaQGuiApplication4execEv",
"_ZN17YaQGuiApplication4fontEv",
"_ZN17YaQGuiApplication4syncEv",
"_ZN17YaQGuiApplication5eventEP6QEvent",
"_ZN17YaQGuiApplication6notifyEP7QObjectP6QEvent",
"_ZN17YaQGuiApplication7paletteEv",
"_ZN17YaQGuiApplication7screensEv",
"_ZN17YaQGuiApplication7setFontERK5QFont",
"_ZN17YaQGuiApplication9clipboardEv",
"_ZN17YaQGuiApplicationC1ER22QGuiApplicationPrivate",
"_ZN17YaQGuiApplicationC1ERiPPci",
"_ZN17YaQGuiApplicationC2ER22QGuiApplicationPrivate",
"_ZN17YaQGuiApplicationC2ERiPPci",
"_ZN17YaQGuiApplicationD0Ev",
"_ZN17YaQGuiApplicationD1Ev",
"_ZN17YaQGuiApplicationD2Ev",
"_ZN18YaQCoreApplication10startingUpEv",
"_ZN18YaQCoreApplication11closingDownEv",
"_ZN18YaQCoreApplication12libraryPathsEv",
"_ZN18YaQCoreApplication12setAttributeEN2Qt20ApplicationAttributeEb",
"_ZN18YaQCoreApplication13compressEventEP6QEventP7QObjectP14QPostEventList",
"_ZN18YaQCoreApplication13processEventsE6QFlagsIN10QEventLoop17ProcessEventsFlagEE",
"_ZN18YaQCoreApplication13processEventsE6QFlagsIN10QEventLoop17ProcessEventsFlagEEi",
"_ZN18YaQCoreApplication13testAttributeEN2Qt20ApplicationAttributeE",
"_ZN18YaQCoreApplication14addLibraryPathERK7QString",
"_ZN18YaQCoreApplication14applicationPidEv",
"_ZN18YaQCoreApplication15applicationNameEv",
"_ZN18YaQCoreApplication15eventDispatcherEv",
"_ZN18YaQCoreApplication15isSetuidAllowedEv",
"_ZN18YaQCoreApplication15setLibraryPathsERK11QStringList",
"_ZN18YaQCoreApplication16hasPendingEventsEv",
"_ZN18YaQCoreApplication16organizationNameEv",
"_ZN18YaQCoreApplication16removeTranslatorEP11QTranslator",
"_ZN18YaQCoreApplication16sendPostedEventsEP7QObjecti",
"_ZN18YaQCoreApplication16setSetuidAllowedEb",
"_ZN18YaQCoreApplication17installTranslatorEP11QTranslator",
"_ZN18YaQCoreApplication17isQuitLockEnabledEv",
"_ZN18YaQCoreApplication17removeLibraryPathERK7QString",
"_ZN18YaQCoreApplication18applicationDirPathEv",
"_ZN18YaQCoreApplication18applicationVersionEv",
"_ZN18YaQCoreApplication18organizationDomainEv",
"_ZN18YaQCoreApplication18removePostedEventsEP7QObjecti",
"_ZN18YaQCoreApplication18setApplicationNameERK7QString",
"_ZN18YaQCoreApplication18setEventDispatcherEP24QAbstractEventDispatcher",
"_ZN18YaQCoreApplication18setQuitLockEnabledEb",
"_ZN18YaQCoreApplication19applicationFilePathEv",
"_ZN18YaQCoreApplication19setOrganizationNameERK7QString",
"_ZN18YaQCoreApplication21setApplicationVersionERK7QString",
"_ZN18YaQCoreApplication21setOrganizationDomainERK7QString",
"_ZN18YaQCoreApplication22applicationNameChangedEv",
"_ZN18YaQCoreApplication23organizationNameChangedEv",
"_ZN18YaQCoreApplication23removeNativeEventFilterEP26QAbstractNativeEventFilter",
"_ZN18YaQCoreApplication24installNativeEventFilterEP26QAbstractNativeEventFilter",
"_ZN18YaQCoreApplication25applicationVersionChangedEv",
"_ZN18YaQCoreApplication25organizationDomainChangedEv",
"_ZN18YaQCoreApplication4execEv",
"_ZN18YaQCoreApplication4exitEi",
"_ZN18YaQCoreApplication4quitEv",
"_ZN18YaQCoreApplication5eventEP6QEvent",
"_ZN18YaQCoreApplication5flushEv",
"_ZN18YaQCoreApplication6notifyEP7QObjectP6QEvent",
"_ZN18YaQCoreApplication8instanceEv",
"_ZN18YaQCoreApplication9argumentsEv",
"_ZN18YaQCoreApplication9postEventEP7QObjectP6QEventi",
"_ZN18YaQCoreApplication9sendEventEP7QObjectP6QEvent",
"_ZN18YaQCoreApplication9translateEPKcS1_S1_i",
"_ZN18YaQCoreApplicationC1ER23QCoreApplicationPrivate",
"_ZN18YaQCoreApplicationC1ERiPPci",
"_ZN18YaQCoreApplicationC2ER23QCoreApplicationPrivate",
"_ZN18YaQCoreApplicationC2ERiPPci",
"_ZN18YaQCoreApplicationD0Ev",
"_ZN18YaQCoreApplicationD1Ev",
"_ZN18YaQCoreApplicationD2Ev",
"_ZN6YaQUrl11fromEncodedERK10QByteArrayN4QUrl11ParsingModeE",
"_ZN6YaQUrl11setFragmentERK7QStringN4QUrl11ParsingModeE",
"_ZN6YaQUrl11setPasswordERK7QStringN4QUrl11ParsingModeE",
"_ZN6YaQUrl11setUserInfoERK7QStringN4QUrl11ParsingModeE",
"_ZN6YaQUrl11setUserNameERK7QStringN4QUrl11ParsingModeE",
"_ZN6YaQUrl12idnWhitelistEv",
"_ZN6YaQUrl12setAuthorityERK7QStringN4QUrl11ParsingModeE",
"_ZN6YaQUrl12toStringListERK5QListI4QUrlE12QUrlTwoFlagsINS1_19UrlFormattingOptionENS1_25ComponentFormattingOptionEE",
"_ZN6YaQUrl13fromLocalFileERK7QString",
"_ZN6YaQUrl13fromUserInputERK7QString",
"_ZN6YaQUrl14fromStringListERK11QStringListN4QUrl11ParsingModeE",
"_ZN6YaQUrl15setIdnWhitelistERK11QStringList",
"_ZN6YaQUrl17toPercentEncodingERK7QStringRK10QByteArrayS5_",
"_ZN6YaQUrl19fromPercentEncodingERK10QByteArray",
"_ZN6YaQUrl4swapER4QUrl",
"_ZN6YaQUrl5clearEv",
"_ZN6YaQUrl5toAceERK7QString",
"_ZN6YaQUrl6detachEv",
"_ZN6YaQUrl6setUrlERK7QStringN4QUrl11ParsingModeE",
"_ZN6YaQUrl7fromAceERK10QByteArray",
"_ZN6YaQUrl7setHostERK7QStringN4QUrl11ParsingModeE",
"_ZN6YaQUrl7setPathERK7QStringN4QUrl11ParsingModeE",
"_ZN6YaQUrl7setPortEi",
"_ZN6YaQUrl8setQueryERK7QStringN4QUrl11ParsingModeE",
"_ZN6YaQUrl8setQueryERK9QUrlQuery",
"_ZN6YaQUrl9setSchemeERK7QString",
"_ZN6YaQUrlC1ERK4QUrl",
"_ZN6YaQUrlC1ERK7QStringN4QUrl11ParsingModeE",
"_ZN6YaQUrlC1Ev",
"_ZN6YaQUrlC2ERK4QUrl",
"_ZN6YaQUrlC2ERK7QStringN4QUrl11ParsingModeE",
"_ZN6YaQUrlC2Ev",
"_ZN6YaQUrlD1Ev",
"_ZN6YaQUrlD2Ev",
"_ZN7YaQChar10digitValueEj",
"_ZN7YaQChar10fromLatin1Ec",
"_ZN7YaQChar11hasMirroredEj",
"_ZN7YaQChar11isSurrogateEj",
"_ZN7YaQChar11isTitleCaseEj",
"_ZN7YaQChar11joiningTypeEj",
"_ZN7YaQChar11toTitleCaseEj",
"_ZN7YaQChar12lowSurrogateEj",
"_ZN7YaQChar12mirroredCharEj",
"_ZN7YaQChar12toCaseFoldedEj",
"_ZN7YaQChar13decompositionEj",
"_ZN7YaQChar13highSurrogateEj",
"_ZN7YaQChar14combiningClassEj",
"_ZN7YaQChar14isLowSurrogateEj",
"_ZN7YaQChar14isNonCharacterEj",
"_ZN7YaQChar14unicodeVersionEj",
"_ZN7YaQChar15isHighSurrogateEj",
"_ZN7YaQChar15surrogateToUcs4E5QCharS0_",
"_ZN7YaQChar15surrogateToUcs4Ett",
"_ZN7YaQChar16decompositionTagEj",
"_ZN7YaQChar16isLetterOrNumberEj",
"_ZN7YaQChar18requiresSurrogatesEj",
"_ZN7YaQChar21currentUnicodeVersionEv",
"_ZN7YaQChar6isMarkEj",
"_ZN7YaQChar6scriptEj",
"_ZN7YaQChar6setRowEh",
"_ZN7YaQChar7isDigitEj",
"_ZN7YaQChar7isLowerEj",
"_ZN7YaQChar7isPrintEj",
"_ZN7YaQChar7isPunctEj",
"_ZN7YaQChar7isSpaceEj",
"_ZN7YaQChar7isUpperEj",
"_ZN7YaQChar7joiningEj",
"_ZN7YaQChar7setCellEh",
"_ZN7YaQChar7toLowerEj",
"_ZN7YaQChar7toUpperEj",
"_ZN7YaQChar7unicodeEv",
"_ZN7YaQChar8categoryEj",
"_ZN7YaQChar8isLetterEj",
"_ZN7YaQChar8isNumberEj",
"_ZN7YaQChar8isSymbolEj",
"_ZN7YaQChar9directionEj",
"_ZN7YaQCharC1E11QLatin1Char",
"_ZN7YaQCharC1Ec",
"_ZN7YaQCharC1Eh",
"_ZN7YaQCharC1Ehh",
"_ZN7YaQCharC1Ei",
"_ZN7YaQCharC1Ej",
"_ZN7YaQCharC1EN5QChar16SpecialCharacterE",
"_ZN7YaQCharC1ERK5QChar",
"_ZN7YaQCharC1Es",
"_ZN7YaQCharC1Et",
"_ZN7YaQCharC1Ev",
"_ZN7YaQCharC2E11QLatin1Char",
"_ZN7YaQCharC2Ec",
"_ZN7YaQCharC2Eh",
"_ZN7YaQCharC2Ehh",
"_ZN7YaQCharC2Ei",
"_ZN7YaQCharC2Ej",
"_ZN7YaQCharC2EN5QChar16SpecialCharacterE",
"_ZN7YaQCharC2ERK5QChar",
"_ZN7YaQCharC2Es",
"_ZN7YaQCharC2Et",
"_ZN7YaQCharC2Ev",
"_ZN7YaQCharD1Ev",
"_ZN7YaQCharD2Ev",
"_ZN7YaQFile10decodeNameEPKc",
"_ZN7YaQFile10decodeNameERK10QByteArray",
"_ZN7YaQFile10encodeNameERK7QString",
"_ZN7YaQFile11permissionsERK7QString",
"_ZN7YaQFile11setFileNameERK7QString",
"_ZN7YaQFile13symLinkTargetERK7QString",
"_ZN7YaQFile14setPermissionsE6QFlagsIN11QFileDevice10PermissionEE",
"_ZN7YaQFile14setPermissionsERK7QString6QFlagsIN11QFileDevice10PermissionEE",
"_ZN7YaQFile4copyERK7QString",
"_ZN7YaQFile4copyERK7QStringS2_",
"_ZN7YaQFile4linkERK7QString",
"_ZN7YaQFile4linkERK7QStringS2_",
"_ZN7YaQFile4openE6QFlagsIN9QIODevice12OpenModeFlagEE",
"_ZN7YaQFile4openEi6QFlagsIN9QIODevice12OpenModeFlagEES0_IN11QFileDevice14FileHandleFlagEE",
"_ZN7YaQFile4openEP8_IO_FILE6QFlagsIN9QIODevice12OpenModeFlagEES2_IN11QFileDevice14FileHandleFlagEE",
"_ZN7YaQFile6existsERK7QString",
"_ZN7YaQFile6removeERK7QString",
"_ZN7YaQFile6removeEv",
"_ZN7YaQFile6renameERK7QString",
"_ZN7YaQFile6renameERK7QStringS2_",
"_ZN7YaQFile6resizeERK7QStringx",
"_ZN7YaQFile6resizeEx",
"_ZN7YaQFile8readLinkERK7QString",
"_ZN7YaQFileC1EP7QObject",
"_ZN7YaQFileC1ER12QFilePrivateP7QObject",
"_ZN7YaQFileC1ERK7QString",
"_ZN7YaQFileC1ERK7QStringP7QObject",
"_ZN7YaQFileC1Ev",
"_ZN7YaQFileC2EP7QObject",
"_ZN7YaQFileC2ER12QFilePrivateP7QObject",
"_ZN7YaQFileC2ERK7QString",
"_ZN7YaQFileC2ERK7QStringP7QObject",
"_ZN7YaQFileC2Ev",
"_ZN7YaQFileD0Ev",
"_ZN7YaQFileD1Ev",
"_ZN7YaQFileD2Ev",
"_ZN7YaQIcon12hasThemeIconERK7QString",
"_ZN7YaQIcon12setThemeNameERK7QString",
"_ZN7YaQIcon16themeSearchPathsEv",
"_ZN7YaQIcon19setThemeSearchPathsERK11QStringList",
"_ZN7YaQIcon4swapER5QIcon",
"_ZN7YaQIcon6detachEv",
"_ZN7YaQIcon7addFileERK7QStringRK5QSizeN5QIcon4ModeENS6_5StateE",
"_ZN7YaQIcon9addPixmapERK7QPixmapN5QIcon4ModeENS3_5StateE",
"_ZN7YaQIcon9fromThemeERK7QStringRK5QIcon",
"_ZN7YaQIcon9themeNameEv",
"_ZN7YaQIconC1EP11QIconEngine",
"_ZN7YaQIconC1ERK5QIcon",
"_ZN7YaQIconC1ERK7QPixmap",
"_ZN7YaQIconC1ERK7QString",
"_ZN7YaQIconC1Ev",
"_ZN7YaQIconC2EP11QIconEngine",
"_ZN7YaQIconC2ERK5QIcon",
"_ZN7YaQIconC2ERK7QPixmap",
"_ZN7YaQIconC2ERK7QString",
"_ZN7YaQIconC2Ev",
"_ZN7YaQIconD1Ev",
"_ZN7YaQIconD2Ev",
"_ZN8YaQTimer10singleShotEiN2Qt9TimerTypeEPK7QObjectPKc",
"_ZN8YaQTimer10singleShotEiPK7QObjectPKc",
"_ZN8YaQTimer10timerEventEP11QTimerEvent",
"_ZN8YaQTimer11setIntervalEi",
"_ZN8YaQTimer12setTimerTypeEN2Qt9TimerTypeE",
"_ZN8YaQTimer13setSingleShotEb",
"_ZN8YaQTimer4stopEv",
"_ZN8YaQTimer5startEi",
"_ZN8YaQTimer5startEv",
"_ZN8YaQTimerC1EP7QObject",
"_ZN8YaQTimerC2EP7QObject",
"_ZN8YaQTimerD0Ev",
"_ZN8YaQTimerD1Ev",
"_ZN8YaQTimerD2Ev",
"_ZN9YaQBitmap4swapER7QBitmap",
"_ZN9YaQBitmap5clearEv",
"_ZN9YaQBitmap8fromDataERK5QSizePKhN6QImage6FormatE",
"_ZN9YaQBitmap9fromImageERK6QImage6QFlagsIN2Qt19ImageConversionFlagEE",
"_ZN9YaQBitmapC1Eii",
"_ZN9YaQBitmapC1ERK5QSize",
"_ZN9YaQBitmapC1ERK7QPixmap",
"_ZN9YaQBitmapC1ERK7QStringPKc",
"_ZN9YaQBitmapC1Ev",
"_ZN9YaQBitmapC2Eii",
"_ZN9YaQBitmapC2ERK5QSize",
"_ZN9YaQBitmapC2ERK7QPixmap",
"_ZN9YaQBitmapC2ERK7QStringPKc",
"_ZN9YaQBitmapC2Ev",
"_ZN9YaQBitmapD0Ev",
"_ZN9YaQBitmapD1Ev",
"_ZN9YaQBitmapD2Ev",
"_ZN9YaQObject10childEventEP11QChildEvent",
"_ZN9YaQObject10disconnectEPK7QObjectPKcS2_S4_",
"_ZN9YaQObject10disconnectEPK7QObjectRK11QMetaMethodS2_S5_",
"_ZN9YaQObject10disconnectERKN11QMetaObject10ConnectionE",
"_ZN9YaQObject10startTimerEiN2Qt9TimerTypeE",
"_ZN9YaQObject10timerEventEP11QTimerEvent",
"_ZN9YaQObject11customEventEP6QEvent",
"_ZN9YaQObject11deleteLaterEv",
"_ZN9YaQObject11eventFilterEP7QObjectP6QEvent",
"_ZN9YaQObject11setPropertyEPKcRK8QVariant",
"_ZN9YaQObject11setUserDataEjP15QObjectUserData",
"_ZN9YaQObject12blockSignalsEb",
"_ZN9YaQObject12moveToThreadEP7QThread",
"_ZN9YaQObject13connectNotifyERK11QMetaMethod",
"_ZN9YaQObject13setObjectNameERK7QString",
"_ZN9YaQObject14dumpObjectInfoEv",
"_ZN9YaQObject14dumpObjectTreeEv",
"_ZN9YaQObject16disconnectNotifyERK11QMetaMethod",
"_ZN9YaQObject16registerUserDataEv",
"_ZN9YaQObject17removeEventFilterEP7QObject",
"_ZN9YaQObject18installEventFilterEP7QObject",
"_ZN9YaQObject5eventEP6QEvent",
"_ZN9YaQObject7connectEPK7QObjectPKcS2_S4_N2Qt14ConnectionTypeE",
"_ZN9YaQObject7connectEPK7QObjectRK11QMetaMethodS2_S5_N2Qt14ConnectionTypeE",
"_ZN9YaQObject9destroyedEP7QObject",
"_ZN9YaQObject9killTimerEi",
"_ZN9YaQObject9setParentEP7QObject",
"_ZN9YaQObjectC1EP7QObject",
"_ZN9YaQObjectC1ER14QObjectPrivateP7QObject",
"_ZN9YaQObjectC2EP7QObject",
"_ZN9YaQObjectC2ER14QObjectPrivateP7QObject",
"_ZN9YaQObjectD0Ev",
"_ZN9YaQObjectD1Ev",
"_ZN9YaQObjectD2Ev",
"_ZN9YaQString10fromLatin1EPKci",
"_ZN9YaQString10fromLatin1ERK10QByteArray",
"_ZN9YaQString10push_frontE5QChar",
"_ZN9YaQString10push_frontERK7QString",
"_ZN9YaQString10setRawDataEPK5QChari",
"_ZN9YaQString10setUnicodeEPK5QChari",
"_ZN9YaQString11fromRawDataEPK5QChari",
"_ZN9YaQString13fromLocal8BitEPKci",
"_ZN9YaQString13fromLocal8BitERK10QByteArray",
"_ZN9YaQString13fromStdStringERKSs",
"_ZN9YaQString14fromStdWStringERKSbIwSt11char_traitsIwESaIwEE",
"_ZN9YaQString14fromWCharArrayEPKwi",
"_ZN9YaQString18localeAwareCompareERK7QStringRK10QStringRef",
"_ZN9YaQString18localeAwareCompareERK7QStringS2_",
"_ZN9YaQString3endEv",
"_ZN9YaQString4chopEi",
"_ZN9YaQString4dataEv",
"_ZN9YaQString4fillE5QChari",
"_ZN9YaQString4swapER7QString",
"_ZN9YaQString5beginEv",
"_ZN9YaQString5clearEv",
"_ZN9YaQString6appendE13QLatin1String",
"_ZN9YaQString6appendE5QChar",
"_ZN9YaQString6appendEPK5QChari",
"_ZN9YaQString6appendEPKc",
"_ZN9YaQString6appendERK10QByteArray",
"_ZN9YaQString6appendERK10QStringRef",
"_ZN9YaQString6appendERK7QString",
"_ZN9YaQString6detachEv",
"_ZN9YaQString6insertEi13QLatin1String",
"_ZN9YaQString6insertEi5QChar",
"_ZN9YaQString6insertEiPK5QChari",
"_ZN9YaQString6insertEiRK7QString",
"_ZN9YaQString6numberEdci",
"_ZN9YaQString6numberEii",
"_ZN9YaQString6numberEji",
"_ZN9YaQString6numberEli",
"_ZN9YaQString6numberEmi",
"_ZN9YaQString6numberExi",
"_ZN9YaQString6numberEyi",
"_ZN9YaQString6removeE5QCharN2Qt15CaseSensitivityE",
"_ZN9YaQString6removeEii",
"_ZN9YaQString6removeERK18QRegularExpression",
"_ZN9YaQString6removeERK7QRegExp",
"_ZN9YaQString6removeERK7QStringN2Qt15CaseSensitivityE",
"_ZN9YaQString6resizeEi",
"_ZN9YaQString6setNumEdci",
"_ZN9YaQString6setNumEfci",
"_ZN9YaQString6setNumEii",
"_ZN9YaQString6setNumEji",
"_ZN9YaQString6setNumEli",
"_ZN9YaQString6setNumEmi",
"_ZN9YaQString6setNumEsi",
"_ZN9YaQString6setNumEti",
"_ZN9YaQString6setNumExi",
"_ZN9YaQString6setNumEyi",
"_ZN9YaQString7compareE13QLatin1StringRK7QStringN2Qt15CaseSensitivityE",
"_ZN9YaQString7compareERK7QString13QLatin1StringN2Qt15CaseSensitivityE",
"_ZN9YaQString7compareERK7QStringRK10QStringRefN2Qt15CaseSensitivityE",
"_ZN9YaQString7compareERK7QStringS2_N2Qt15CaseSensitivityE",
"_ZN9YaQString7prependE13QLatin1String",
"_ZN9YaQString7prependE5QChar",
"_ZN9YaQString7prependEPKc",
"_ZN9YaQString7prependERK10QByteArray",
"_ZN9YaQString7prependERK7QString",
"_ZN9YaQString7replaceE13QLatin1StringRK7QStringN2Qt15CaseSensitivityE",
"_ZN9YaQString7replaceE13QLatin1StringS0_N2Qt15CaseSensitivityE",
"_ZN9YaQString7replaceE5QChar13QLatin1StringN2Qt15CaseSensitivityE",
"_ZN9YaQString7replaceE5QCharRK7QStringN2Qt15CaseSensitivityE",
"_ZN9YaQString7replaceE5QCharS0_N2Qt15CaseSensitivityE",
"_ZN9YaQString7replaceEii5QChar",
"_ZN9YaQString7replaceEiiPK5QChari",
"_ZN9YaQString7replaceEiiRK7QString",
"_ZN9YaQString7replaceEPK5QChariS2_iN2Qt15CaseSensitivityE",
"_ZN9YaQString7replaceERK18QRegularExpressionRK7QString",
"_ZN9YaQString7replaceERK7QRegExpRK7QString",
"_ZN9YaQString7replaceERK7QString13QLatin1StringN2Qt15CaseSensitivityE",
"_ZN9YaQString7replaceERK7QStringS2_N2Qt15CaseSensitivityE",
"_ZN9YaQString7reserveEi",
"_ZN9YaQString7sprintfEPKc",
"_ZN9YaQString7squeezeEv",
"_ZN9YaQString8fromUcs4EPKji",
"_ZN9YaQString8fromUtf8EPKci",
"_ZN9YaQString8fromUtf8ERK10QByteArray",
"_ZN9YaQString8setUtf16EPKti",
"_ZN9YaQString8truncateEi",
"_ZN9YaQString8vsprintfEPKcPc",
"_ZN9YaQString9fromUtf16EPKti",
"_ZN9YaQString9push_backE5QChar",
"_ZN9YaQString9push_backERK7QString",
"_ZN9YaQStringC1E13QLatin1String",
"_ZN9YaQStringC1E14QStringDataPtr",
"_ZN9YaQStringC1E5QChar",
"_ZN9YaQStringC1Ei5QChar",
"_ZN9YaQStringC1EiN2Qt14InitializationE",
"_ZN9YaQStringC1EPK5QChari",
"_ZN9YaQStringC1EPKc",
"_ZN9YaQStringC1ERK10QByteArray",
"_ZN9YaQStringC1ERK7QString",
"_ZN9YaQStringC1ERKN7QString4NullE",
"_ZN9YaQStringC1Ev",
"_ZN9YaQStringC2E13QLatin1String",
"_ZN9YaQStringC2E14QStringDataPtr",
"_ZN9YaQStringC2E5QChar",
"_ZN9YaQStringC2Ei5QChar",
"_ZN9YaQStringC2EiN2Qt14InitializationE",
"_ZN9YaQStringC2EPK5QChari",
"_ZN9YaQStringC2EPKc",
"_ZN9YaQStringC2ERK10QByteArray",
"_ZN9YaQStringC2ERK7QString",
"_ZN9YaQStringC2ERKN7QString4NullE",
"_ZN9YaQStringC2Ev",
"_ZN9YaQStringD1Ev",
"_ZN9YaQStringD2Ev",
"_ZN9YaQThread11setPriorityEN7QThread8PriorityE",
"_ZN9YaQThread12setStackSizeEj",
"_ZN9YaQThread13currentThreadEv",
"_ZN9YaQThread15currentThreadIdEv",
"_ZN9YaQThread16idealThreadCountEv",
"_ZN9YaQThread18setEventDispatcherEP24QAbstractEventDispatcher",
"_ZN9YaQThread18yieldCurrentThreadEv",
"_ZN9YaQThread19requestInterruptionEv",
"_ZN9YaQThread21setTerminationEnabledEb",
"_ZN9YaQThread3runEv",
"_ZN9YaQThread4execEv",
"_ZN9YaQThread4exitEi",
"_ZN9YaQThread4quitEv",
"_ZN9YaQThread4waitEm",
"_ZN9YaQThread5eventEP6QEvent",
"_ZN9YaQThread5sleepEm",
"_ZN9YaQThread5startEN7QThread8PriorityE",
"_ZN9YaQThread6msleepEm",
"_ZN9YaQThread6usleepEm",
"_ZN9YaQThread9terminateEv",
"_ZN9YaQThreadC1EP7QObject",
"_ZN9YaQThreadC1ER14QThreadPrivateP7QObject",
"_ZN9YaQThreadC2EP7QObject",
"_ZN9YaQThreadC2ER14QThreadPrivateP7QObject",
"_ZN9YaQThreadD0Ev",
"_ZN9YaQThreadD1Ev",
"_ZN9YaQThreadD2Ev",
"_ZN9YaQWidget10addActionsE5QListIP7QActionE",
"_ZN9YaQWidget10adjustSizeEv",
"_ZN9YaQWidget10clearFocusEv",
"_ZN9YaQWidget10closeEventEP11QCloseEvent",
"_ZN9YaQWidget10enterEventEP6QEvent",
"_ZN9YaQWidget10leaveEventEP6QEvent",
"_ZN9YaQWidget10paintEventEP11QPaintEvent",
"_ZN9YaQWidget10setEnabledEb",
"_ZN9YaQWidget10setPaletteERK8QPalette",
"_ZN9YaQWidget10setToolTipERK7QString",
"_ZN9YaQWidget10setVisibleEb",
"_ZN9YaQWidget10showNormalEv",
"_ZN9YaQWidget10stackUnderEP7QWidget",
"_ZN9YaQWidget10wheelEventEP11QWheelEvent",
"_ZN9YaQWidget11actionEventEP12QActionEvent",
"_ZN9YaQWidget11changeEventEP6QEvent",
"_ZN9YaQWidget11createWinIdEv",
"_ZN9YaQWidget11grabGestureEN2Qt11GestureTypeE6QFlagsINS0_11GestureFlagEE",
"_ZN9YaQWidget11nativeEventERK10QByteArrayPvPl",
"_ZN9YaQWidget11resizeEventEP12QResizeEvent",
"_ZN9YaQWidget11setBaseSizeEii",
"_ZN9YaQWidget11setBaseSizeERK5QSize",
"_ZN9YaQWidget11setDisabledEb",
"_ZN9YaQWidget11setGeometryEiiii",
"_ZN9YaQWidget11setGeometryERK5QRect",
"_ZN9YaQWidget11setTabOrderEP7QWidgetS1_",
"_ZN9YaQWidget11tabletEventEP12QTabletEvent",
"_ZN9YaQWidget11unsetCursorEv",
"_ZN9YaQWidget11unsetLocaleEv",
"_ZN9YaQWidget12focusInEventEP11QFocusEvent",
"_ZN9YaQWidget12grabKeyboardEv",
"_ZN9YaQWidget12grabShortcutERK12QKeySequenceN2Qt15ShortcutContextE",
"_ZN9YaQWidget12insertActionEP7QActionS1_",
"_ZN9YaQWidget12mouseGrabberEv",
"_ZN9YaQWidget12releaseMouseEv",
"_ZN9YaQWidget12removeActionEP7QAction",
"_ZN9YaQWidget12setAttributeEN2Qt15WidgetAttributeEb",
"_ZN9YaQWidget12setFixedSizeEii",
"_ZN9YaQWidget12setFixedSizeERK5QSize",
"_ZN9YaQWidget12setStatusTipERK7QString",
"_ZN9YaQWidget12setWhatsThisERK7QString",
"_ZN9YaQWidget13dragMoveEventEP14QDragMoveEvent",
"_ZN9YaQWidget13focusOutEventEP11QFocusEvent",
"_ZN9YaQWidget13insertActionsEP7QAction5QListIS1_E",
"_ZN9YaQWidget13keyPressEventEP9QKeyEvent",
"_ZN9YaQWidget13setFixedWidthEi",
"_ZN9YaQWidget13setFocusProxyEP7QWidget",
"_ZN9YaQWidget13setSizePolicyE11QSizePolicy",
"_ZN9YaQWidget13setSizePolicyEN11QSizePolicy6PolicyES1_",
"_ZN9YaQWidget13setStyleSheetERK7QString",
"_ZN9YaQWidget13setWindowIconERK5QIcon",
"_ZN9YaQWidget13setWindowRoleERK7QString",
"_ZN9YaQWidget13showMaximizedEv",
"_ZN9YaQWidget13showMinimizedEv",
"_ZN9YaQWidget13ungrabGestureEN2Qt11GestureTypeE",
"_ZN9YaQWidget14activateWindowEv",
"_ZN9YaQWidget14dragEnterEventEP15QDragEnterEvent",
"_ZN9YaQWidget14dragLeaveEventEP15QDragLeaveEvent",
"_ZN9YaQWidget14focusNextChildEv",
"_ZN9YaQWidget14mouseMoveEventEP11QMouseEvent",
"_ZN9YaQWidget14setAcceptDropsEb",
"_ZN9YaQWidget14setFixedHeightEi",
"_ZN9YaQWidget14setFocusPolicyEN2Qt11FocusPolicyE",
"_ZN9YaQWidget14setMaximumSizeEii",
"_ZN9YaQWidget14setMaximumSizeERK5QSize",
"_ZN9YaQWidget14setMinimumSizeEii",
"_ZN9YaQWidget14setMinimumSizeERK5QSize",
"_ZN9YaQWidget14setWindowFlagsE6QFlagsIN2Qt10WindowTypeEE",
"_ZN9YaQWidget14setWindowStateE6QFlagsIN2Qt11WindowStateEE",
"_ZN9YaQWidget14setWindowTitleERK7QString",
"_ZN9YaQWidget14showFullScreenEv",
"_ZN9YaQWidget14updateGeometryEv",
"_ZN9YaQWidget15keyboardGrabberEv",
"_ZN9YaQWidget15keyReleaseEventEP9QKeyEvent",
"_ZN9YaQWidget15mousePressEventEP11QMouseEvent",
"_ZN9YaQWidget15releaseKeyboardEv",
"_ZN9YaQWidget15releaseShortcutEi",
"_ZN9YaQWidget15restoreGeometryERK10QByteArray",
"_ZN9YaQWidget15setMaximumWidthEi",
"_ZN9YaQWidget15setMinimumWidthEi",
"_ZN9YaQWidget16contextMenuEventEP17QContextMenuEvent",
"_ZN9YaQWidget16inputMethodEventEP17QInputMethodEvent",
"_ZN9YaQWidget16setMaximumHeightEi",
"_ZN9YaQWidget16setMinimumHeightEi",
"_ZN9YaQWidget16setMouseTrackingEb",
"_ZN9YaQWidget16setSizeIncrementEii",
"_ZN9YaQWidget16setSizeIncrementERK5QSize",
"_ZN9YaQWidget16setWindowOpacityEd",
"_ZN9YaQWidget16updateMicroFocusEv",
"_ZN9YaQWidget17mouseReleaseEventEP11QMouseEvent",
"_ZN9YaQWidget17setAccessibleNameERK7QString",
"_ZN9YaQWidget17setBackgroundRoleEN8QPalette9ColorRoleE",
"_ZN9YaQWidget17setForegroundRoleEN8QPalette9ColorRoleE",
"_ZN9YaQWidget17setGraphicsEffectEP15QGraphicsEffect",
"_ZN9YaQWidget17setUpdatesEnabledEb",
"_ZN9YaQWidget17setWindowFilePathERK7QString",
"_ZN9YaQWidget17setWindowIconTextERK7QString",
"_ZN9YaQWidget17setWindowModalityEN2Qt14WindowModalityE",
"_ZN9YaQWidget17setWindowModifiedEb",
"_ZN9YaQWidget17windowIconChangedERK5QIcon",
"_ZN9YaQWidget18focusNextPrevChildEb",
"_ZN9YaQWidget18focusPreviousChildEv",
"_ZN9YaQWidget18setContentsMarginsEiiii",
"_ZN9YaQWidget18setContentsMarginsERK8QMargins",
"_ZN9YaQWidget18setLayoutDirectionEN2Qt15LayoutDirectionE",
"_ZN9YaQWidget18setShortcutEnabledEib",
"_ZN9YaQWidget18setToolTipDurationEi",
"_ZN9YaQWidget18windowTitleChangedERK7QString",
"_ZN9YaQWidget19overrideWindowFlagsE6QFlagsIN2Qt10WindowTypeEE",
"_ZN9YaQWidget19overrideWindowStateE6QFlagsIN2Qt11WindowStateEE",
"_ZN9YaQWidget19setInputMethodHintsE6QFlagsIN2Qt15InputMethodHintEE",
"_ZN9YaQWidget20setContextMenuPolicyEN2Qt17ContextMenuPolicyE",
"_ZN9YaQWidget20unsetLayoutDirectionEv",
"_ZN9YaQWidget21createWindowContainerEP7QWindowP7QWidget6QFlagsIN2Qt10WindowTypeEE",
"_ZN9YaQWidget21mouseDoubleClickEventEP11QMouseEvent",
"_ZN9YaQWidget21setAutoFillBackgroundEb",
"_ZN9YaQWidget21setShortcutAutoRepeatEib",
"_ZN9YaQWidget21windowIconTextChangedERK7QString",
"_ZN9YaQWidget24setAccessibleDescriptionERK7QString",
"_ZN9YaQWidget26customContextMenuRequestedERK6QPoint",
"_ZN9YaQWidget4findEj",
"_ZN9YaQWidget4grabERK5QRect",
"_ZN9YaQWidget4hideEv",
"_ZN9YaQWidget4moveEii",
"_ZN9YaQWidget4moveERK6QPoint",
"_ZN9YaQWidget4showEv",
"_ZN9YaQWidget5closeEv",
"_ZN9YaQWidget5eventEP6QEvent",
"_ZN9YaQWidget5lowerEv",
"_ZN9YaQWidget5raiseEv",
"_ZN9YaQWidget6createEjbb",
"_ZN9YaQWidget6renderEP12QPaintDeviceRK6QPointRK7QRegion6QFlagsIN7QWidget10RenderFlagEE",
"_ZN9YaQWidget6renderEP8QPainterRK6QPointRK7QRegion6QFlagsIN7QWidget10RenderFlagEE",
"_ZN9YaQWidget6resizeEii",
"_ZN9YaQWidget6resizeERK5QSize",
"_ZN9YaQWidget6scrollEii",
"_ZN9YaQWidget6scrollEiiRK5QRect",
"_ZN9YaQWidget6updateEiiii",
"_ZN9YaQWidget6updateERK5QRect",
"_ZN9YaQWidget6updateERK7QRegion",
"_ZN9YaQWidget6updateEv",
"_ZN9YaQWidget7destroyEbb",
"_ZN9YaQWidget7repaintEiiii",
"_ZN9YaQWidget7repaintERK5QRect",
"_ZN9YaQWidget7repaintERK7QRegion",
"_ZN9YaQWidget7repaintEv",
"_ZN9YaQWidget7setFontERK5QFont",
"_ZN9YaQWidget7setMaskERK7QBitmap",
"_ZN9YaQWidget7setMaskERK7QRegion",
"_ZN9YaQWidget8setFocusEN2Qt11FocusReasonE",
"_ZN9YaQWidget8setFocusEv",
"_ZN9YaQWidget8setStyleEP6QStyle",
"_ZN9YaQWidget9addActionEP7QAction",
"_ZN9YaQWidget9clearMaskEv",
"_ZN9YaQWidget9dropEventEP10QDropEvent",
"_ZN9YaQWidget9grabMouseERK7QCursor",
"_ZN9YaQWidget9grabMouseEv",
"_ZN9YaQWidget9hideEventEP10QHideEvent",
"_ZN9YaQWidget9moveEventEP10QMoveEvent",
"_ZN9YaQWidget9setCursorERK7QCursor",
"_ZN9YaQWidget9setHiddenEb",
"_ZN9YaQWidget9setLayoutEP7QLayout",
"_ZN9YaQWidget9setLocaleERK7QLocale",
"_ZN9YaQWidget9setParentEP7QWidget",
"_ZN9YaQWidget9setParentEP7QWidget6QFlagsIN2Qt10WindowTypeEE",
"_ZN9YaQWidget9showEventEP10QShowEvent",
"_ZN9YaQWidgetC1EP7QWidget6QFlagsIN2Qt10WindowTypeEE",
"_ZN9YaQWidgetC1ER14QWidgetPrivateP7QWidget6QFlagsIN2Qt10WindowTypeEE",
"_ZN9YaQWidgetC2EP7QWidget6QFlagsIN2Qt10WindowTypeEE",
"_ZN9YaQWidgetC2ER14QWidgetPrivateP7QWidget6QFlagsIN2Qt10WindowTypeEE",
"_ZN9YaQWidgetD0Ev",
"_ZN9YaQWidgetD1Ev",
"_ZN9YaQWidgetD2Ev",
"_ZNK11YaQDateTime10toTimeSpecEN2Qt8TimeSpecE",
"_ZNK11YaQDateTime10toTimeZoneERK9QTimeZone",
"_ZNK11YaQDateTime11toLocalTimeEv",
"_ZNK11YaQDateTime13offsetFromUtcEv",
"_ZNK11YaQDateTime14isDaylightTimeEv",
"_ZNK11YaQDateTime15toOffsetFromUtcEi",
"_ZNK11YaQDateTime17toMSecsSinceEpochEv",
"_ZNK11YaQDateTime20timeZoneAbbreviationEv",
"_ZNK11YaQDateTime4dateEv",
"_ZNK11YaQDateTime4timeEv",
"_ZNK11YaQDateTime5toUTCEv",
"_ZNK11YaQDateTime6daysToERK9QDateTime",
"_ZNK11YaQDateTime6isNullEv",
"_ZNK11YaQDateTime6secsToERK9QDateTime",
"_ZNK11YaQDateTime7addDaysEx",
"_ZNK11YaQDateTime7addSecsEx",
"_ZNK11YaQDateTime7isValidEv",
"_ZNK11YaQDateTime7msecsToERK9QDateTime",
"_ZNK11YaQDateTime8addMSecsEx",
"_ZNK11YaQDateTime8addYearsEi",
"_ZNK11YaQDateTime8timeSpecEv",
"_ZNK11YaQDateTime8timeZoneEv",
"_ZNK11YaQDateTime8toStringEN2Qt10DateFormatE",
"_ZNK11YaQDateTime8toStringERK7QString",
"_ZNK11YaQDateTime8toTime_tEv",
"_ZNK11YaQDateTime9addMonthsEi",
"_ZNK11YaQDateTime9utcOffsetEv",
"_ZNK12YaQByteArray10constBeginEv",
"_ZNK12YaQByteArray10isDetachedEv",
"_ZNK12YaQByteArray10simplifiedEv",
"_ZNK12YaQByteArray10startsWithEc",
"_ZNK12YaQByteArray10startsWithEPKc",
"_ZNK12YaQByteArray10startsWithERK10QByteArray",
"_ZNK12YaQByteArray10toLongLongEPbi",
"_ZNK12YaQByteArray11lastIndexOfEci",
"_ZNK12YaQByteArray11lastIndexOfEPKci",
"_ZNK12YaQByteArray11lastIndexOfERK10QByteArrayi",
"_ZNK12YaQByteArray11lastIndexOfERK7QStringi",
"_ZNK12YaQByteArray11toULongLongEPbi",
"_ZNK12YaQByteArray12isSharedWithERK10QByteArray",
"_ZNK12YaQByteArray13leftJustifiedEicb",
"_ZNK12YaQByteArray14rightJustifiedEicb",
"_ZNK12YaQByteArray17toPercentEncodingERK10QByteArrayS2_c",
"_ZNK12YaQByteArray2atEi",
"_ZNK12YaQByteArray3endEv",
"_ZNK12YaQByteArray3midEii",
"_ZNK12YaQByteArray4cendEv",
"_ZNK12YaQByteArray4dataEv",
"_ZNK12YaQByteArray4leftEi",
"_ZNK12YaQByteArray4sizeEv",
"_ZNK12YaQByteArray5beginEv",
"_ZNK12YaQByteArray5countEc",
"_ZNK12YaQByteArray5countEPKc",
"_ZNK12YaQByteArray5countERK10QByteArray",
"_ZNK12YaQByteArray5countEv",
"_ZNK12YaQByteArray5rightEi",
"_ZNK12YaQByteArray5splitEc",
"_ZNK12YaQByteArray5toHexEv",
"_ZNK12YaQByteArray5toIntEPbi",
"_ZNK12YaQByteArray6cbeginEv",
"_ZNK12YaQByteArray6isNullEv",
"_ZNK12YaQByteArray6lengthEv",
"_ZNK12YaQByteArray6toLongEPbi",
"_ZNK12YaQByteArray6toUIntEPbi",
"_ZNK12YaQByteArray7indexOfEci",
"_ZNK12YaQByteArray7indexOfEPKci",
"_ZNK12YaQByteArray7indexOfERK10QByteArrayi",
"_ZNK12YaQByteArray7indexOfERK7QStringi",
"_ZNK12YaQByteArray7isEmptyEv",
"_ZNK12YaQByteArray7toFloatEPb",
"_ZNK12YaQByteArray7toLowerEv",
"_ZNK12YaQByteArray7toShortEPbi",
"_ZNK12YaQByteArray7toULongEPbi",
"_ZNK12YaQByteArray7toUpperEv",
"_ZNK12YaQByteArray7trimmedEv",
"_ZNK12YaQByteArray8capacityEv",
"_ZNK12YaQByteArray8constEndEv",
"_ZNK12YaQByteArray8containsEc",
"_ZNK12YaQByteArray8containsEPKc",
"_ZNK12YaQByteArray8containsERK10QByteArray",
"_ZNK12YaQByteArray8endsWithEc",
"_ZNK12YaQByteArray8endsWithEPKc",
"_ZNK12YaQByteArray8endsWithERK10QByteArray",
"_ZNK12YaQByteArray8repeatedEi",
"_ZNK12YaQByteArray8toBase64E6QFlagsIN10QByteArray12Base64OptionEE",
"_ZNK12YaQByteArray8toBase64Ev",
"_ZNK12YaQByteArray8toDoubleEPb",
"_ZNK12YaQByteArray8toUShortEPbi",
"_ZNK12YaQByteArray9constDataEv",
"_ZNK12YaQTcpServer10serverPortEv",
"_ZNK12YaQTcpServer11errorStringEv",
"_ZNK12YaQTcpServer11isListeningEv",
"_ZNK12YaQTcpServer11serverErrorEv",
"_ZNK12YaQTcpServer13serverAddressEv",
"_ZNK12YaQTcpServer16socketDescriptorEv",
"_ZNK12YaQTcpServer21hasPendingConnectionsEv",
"_ZNK12YaQTcpServer21maxPendingConnectionsEv",
"_ZNK12YaQTcpServer5proxyEv",
"_ZNK13YaQMainWindow10isAnimatedEv",
"_ZNK13YaQMainWindow10menuWidgetEv",
"_ZNK13YaQMainWindow11dockOptionsEv",
"_ZNK13YaQMainWindow11isSeparatorERK6QPoint",
"_ZNK13YaQMainWindow11tabPositionEN2Qt14DockWidgetAreaE",
"_ZNK13YaQMainWindow11toolBarAreaEP8QToolBar",
"_ZNK13YaQMainWindow12documentModeEv",
"_ZNK13YaQMainWindow12toolBarBreakEP8QToolBar",
"_ZNK13YaQMainWindow13centralWidgetEv",
"_ZNK13YaQMainWindow14dockWidgetAreaEP11QDockWidget",
"_ZNK13YaQMainWindow15toolButtonStyleEv",
"_ZNK13YaQMainWindow19tabifiedDockWidgetsEP11QDockWidget",
"_ZNK13YaQMainWindow20isDockNestingEnabledEv",
"_ZNK13YaQMainWindow27unifiedTitleAndToolBarOnMacEv",
"_ZNK13YaQMainWindow6cornerEN2Qt6CornerE",
"_ZNK13YaQMainWindow7menuBarEv",
"_ZNK13YaQMainWindow8iconSizeEv",
"_ZNK13YaQMainWindow8tabShapeEv",
"_ZNK13YaQMainWindow9saveStateEi",
"_ZNK13YaQMainWindow9statusBarEv",
"_ZNK14YaQHostAddress10isInSubnetERK12QHostAddressi",
"_ZNK14YaQHostAddress10isInSubnetERK5QPairI12QHostAddressiE",
"_ZNK14YaQHostAddress10isLoopbackEv",
"_ZNK14YaQHostAddress13toIPv4AddressEv",
"_ZNK14YaQHostAddress13toIPv6AddressEv",
"_ZNK14YaQHostAddress6isNullEv",
"_ZNK14YaQHostAddress7scopeIdEv",
"_ZNK14YaQHostAddress8protocolEv",
"_ZNK14YaQHostAddress8toStringEv",
"_ZNK17YaQAbstractSocket10socketTypeEv",
"_ZNK17YaQAbstractSocket11canReadLineEv",
"_ZNK17YaQAbstractSocket11peerAddressEv",
"_ZNK17YaQAbstractSocket12bytesToWriteEv",
"_ZNK17YaQAbstractSocket12isSequentialEv",
"_ZNK17YaQAbstractSocket12localAddressEv",
"_ZNK17YaQAbstractSocket14bytesAvailableEv",
"_ZNK17YaQAbstractSocket14readBufferSizeEv",
"_ZNK17YaQAbstractSocket16socketDescriptorEv",
"_ZNK17YaQAbstractSocket5atEndEv",
"_ZNK17YaQAbstractSocket5errorEv",
"_ZNK17YaQAbstractSocket5proxyEv",
"_ZNK17YaQAbstractSocket5stateEv",
"_ZNK17YaQAbstractSocket7isValidEv",
"_ZNK17YaQAbstractSocket8peerNameEv",
"_ZNK17YaQAbstractSocket8peerPortEv",
"_ZNK17YaQAbstractSocket9localPortEv",
"_ZNK17YaQAbstractSocket9pauseModeEv",
"_ZNK17YaQGuiApplication10sessionKeyEv",
"_ZNK17YaQGuiApplication15isSavingSessionEv",
"_ZNK17YaQGuiApplication16devicePixelRatioEv",
"_ZNK17YaQGuiApplication17isSessionRestoredEv",
"_ZNK17YaQGuiApplication9sessionIdEv",
"_ZNK6YaQUrl10isDetachedEv",
"_ZNK6YaQUrl10isParentOfERK4QUrl",
"_ZNK6YaQUrl10isRelativeEv",
"_ZNK6YaQUrl11errorStringEv",
"_ZNK6YaQUrl11hasFragmentEv",
"_ZNK6YaQUrl11isLocalFileEv",
"_ZNK6YaQUrl11toLocalFileEv",
"_ZNK6YaQUrl14topLevelDomainE6QFlagsIN4QUrl25ComponentFormattingOptionEE",
"_ZNK6YaQUrl15toDisplayStringE12QUrlTwoFlagsIN4QUrl19UrlFormattingOptionENS1_25ComponentFormattingOptionEE",
"_ZNK6YaQUrl3urlE12QUrlTwoFlagsIN4QUrl19UrlFormattingOptionENS1_25ComponentFormattingOptionEE",
"_ZNK6YaQUrl4hostE6QFlagsIN4QUrl25ComponentFormattingOptionEE",
"_ZNK6YaQUrl4pathE6QFlagsIN4QUrl25ComponentFormattingOptionEE",
"_ZNK6YaQUrl4portEi",
"_ZNK6YaQUrl5queryE6QFlagsIN4QUrl25ComponentFormattingOptionEE",
"_ZNK6YaQUrl6schemeEv",
"_ZNK6YaQUrl7isEmptyEv",
"_ZNK6YaQUrl7isValidEv",
"_ZNK6YaQUrl7matchesERK4QUrl12QUrlTwoFlagsINS0_19UrlFormattingOptionENS0_25ComponentFormattingOptionEE",
"_ZNK6YaQUrl8adjustedE12QUrlTwoFlagsIN4QUrl19UrlFormattingOptionENS1_25ComponentFormattingOptionEE",
"_ZNK6YaQUrl8fileNameE6QFlagsIN4QUrl25ComponentFormattingOptionEE",
"_ZNK6YaQUrl8fragmentE6QFlagsIN4QUrl25ComponentFormattingOptionEE",
"_ZNK6YaQUrl8hasQueryEv",
"_ZNK6YaQUrl8passwordE6QFlagsIN4QUrl25ComponentFormattingOptionEE",
"_ZNK6YaQUrl8resolvedERK4QUrl",
"_ZNK6YaQUrl8toStringE12QUrlTwoFlagsIN4QUrl19UrlFormattingOptionENS1_25ComponentFormattingOptionEE",
"_ZNK6YaQUrl8userInfoE6QFlagsIN4QUrl25ComponentFormattingOptionEE",
"_ZNK6YaQUrl8userNameE6QFlagsIN4QUrl25ComponentFormattingOptionEE",
"_ZNK6YaQUrl9authorityE6QFlagsIN4QUrl25ComponentFormattingOptionEE",
"_ZNK6YaQUrl9toEncodedE12QUrlTwoFlagsIN4QUrl19UrlFormattingOptionENS1_25ComponentFormattingOptionEE",
"_ZNK7YaQChar10digitValueEv",
"_ZNK7YaQChar11hasMirroredEv",
"_ZNK7YaQChar11isSurrogateEv",
"_ZNK7YaQChar11isTitleCaseEv",
"_ZNK7YaQChar11joiningTypeEv",
"_ZNK7YaQChar11toTitleCaseEv",
"_ZNK7YaQChar12mirroredCharEv",
"_ZNK7YaQChar12toCaseFoldedEv",
"_ZNK7YaQChar13decompositionEv",
"_ZNK7YaQChar14combiningClassEv",
"_ZNK7YaQChar14isLowSurrogateEv",
"_ZNK7YaQChar14isNonCharacterEv",
"_ZNK7YaQChar14unicodeVersionEv",
"_ZNK7YaQChar15isHighSurrogateEv",
"_ZNK7YaQChar16decompositionTagEv",
"_ZNK7YaQChar16isLetterOrNumberEv",
"_ZNK7YaQChar3rowEv",
"_ZNK7YaQChar4cellEv",
"_ZNK7YaQChar6isMarkEv",
"_ZNK7YaQChar6isNullEv",
"_ZNK7YaQChar6scriptEv",
"_ZNK7YaQChar7isDigitEv",
"_ZNK7YaQChar7isLowerEv",
"_ZNK7YaQChar7isPrintEv",
"_ZNK7YaQChar7isPunctEv",
"_ZNK7YaQChar7isSpaceEv",
"_ZNK7YaQChar7isUpperEv",
"_ZNK7YaQChar7joiningEv",
"_ZNK7YaQChar7toLowerEv",
"_ZNK7YaQChar7toUpperEv",
"_ZNK7YaQChar7unicodeEv",
"_ZNK7YaQChar8categoryEv",
"_ZNK7YaQChar8isLetterEv",
"_ZNK7YaQChar8isNumberEv",
"_ZNK7YaQChar8isSymbolEv",
"_ZNK7YaQChar8toLatin1Ev",
"_ZNK7YaQChar9directionEv",
"_ZNK7YaQFile11permissionsEv",
"_ZNK7YaQFile13symLinkTargetEv",
"_ZNK7YaQFile4sizeEv",
"_ZNK7YaQFile6existsEv",
"_ZNK7YaQFile8fileNameEv",
"_ZNK7YaQFile8readLinkEv",
"_ZNK7YaQIcon10actualSizeEP7QWindowRK5QSizeN5QIcon4ModeENS5_5StateE",
"_ZNK7YaQIcon10actualSizeERK5QSizeN5QIcon4ModeENS3_5StateE",
"_ZNK7YaQIcon10isDetachedEv",
"_ZNK7YaQIcon14availableSizesEN5QIcon4ModeENS0_5StateE",
"_ZNK7YaQIcon4nameEv",
"_ZNK7YaQIcon5paintEP8QPainteriiii6QFlagsIN2Qt13AlignmentFlagEEN5QIcon4ModeENS6_5StateE",
"_ZNK7YaQIcon5paintEP8QPainterRK5QRect6QFlagsIN2Qt13AlignmentFlagEEN5QIcon4ModeENS9_5StateE",
"_ZNK7YaQIcon6isNullEv",
"_ZNK7YaQIcon6pixmapEiiN5QIcon4ModeENS0_5StateE",
"_ZNK7YaQIcon6pixmapEiN5QIcon4ModeENS0_5StateE",
"_ZNK7YaQIcon6pixmapEP7QWindowRK5QSizeN5QIcon4ModeENS5_5StateE",
"_ZNK7YaQIcon6pixmapERK5QSizeN5QIcon4ModeENS3_5StateE",
"_ZNK7YaQIcon8cacheKeyEv",
"_ZNK8YaQTimer12isSingleShotEv",
"_ZNK8YaQTimer13remainingTimeEv",
"_ZNK8YaQTimer7timerIdEv",
"_ZNK8YaQTimer8intervalEv",
"_ZNK8YaQTimer8isActiveEv",
"_ZNK8YaQTimer9timerTypeEv",
"_ZNK9YaQBitmap11transformedERK10QTransform",
"_ZNK9YaQBitmap11transformedERK7QMatrix",
"_ZNK9YaQObject10disconnectEPK7QObjectPKc",
"_ZNK9YaQObject10disconnectEPKcPK7QObjectS1_",
"_ZNK9YaQObject10objectNameEv",
"_ZNK9YaQObject12isWidgetTypeEv",
"_ZNK9YaQObject12isWindowTypeEv",
"_ZNK9YaQObject14signalsBlockedEv",
"_ZNK9YaQObject17isSignalConnectedERK11QMetaMethod",
"_ZNK9YaQObject17senderSignalIndexEv",
"_ZNK9YaQObject20dynamicPropertyNamesEv",
"_ZNK9YaQObject6parentEv",
"_ZNK9YaQObject6senderEv",
"_ZNK9YaQObject6threadEv",
"_ZNK9YaQObject7connectEPK7QObjectPKcS4_N2Qt14ConnectionTypeE",
"_ZNK9YaQObject8childrenEv",
"_ZNK9YaQObject8inheritsEPKc",
"_ZNK9YaQObject8propertyEPKc",
"_ZNK9YaQObject8userDataEj",
"_ZNK9YaQObject9receiversEPKc",
"_ZNK9YaQString10constBeginEv",
"_ZNK9YaQString10isDetachedEv",
"_ZNK9YaQString10normalizedEN7QString17NormalizationFormEN5QChar14UnicodeVersionE",
"_ZNK9YaQString10simplifiedEv",
"_ZNK9YaQString10startsWithE13QLatin1StringN2Qt15CaseSensitivityE",
"_ZNK9YaQString10startsWithE5QCharN2Qt15CaseSensitivityE",
"_ZNK9YaQString10startsWithERK10QStringRefN2Qt15CaseSensitivityE",
"_ZNK9YaQString10startsWithERK7QStringN2Qt15CaseSensitivityE",
"_ZNK9YaQString10toLongLongEPbi",
"_ZNK9YaQString11lastIndexOfE13QLatin1StringiN2Qt15CaseSensitivityE",
"_ZNK9YaQString11lastIndexOfE5QChariN2Qt15CaseSensitivityE",
"_ZNK9YaQString11lastIndexOfER7QRegExpi",
"_ZNK9YaQString11lastIndexOfERK10QStringRefiN2Qt15CaseSensitivityE",
"_ZNK9YaQString11lastIndexOfERK18QRegularExpressioni",
"_ZNK9YaQString11lastIndexOfERK7QRegExpi",
"_ZNK9YaQString11lastIndexOfERK7QStringiN2Qt15CaseSensitivityE",
"_ZNK9YaQString11toLocal8BitEv",
"_ZNK9YaQString11toStdStringEv",
"_ZNK9YaQString11toULongLongEPbi",
"_ZNK9YaQString12isSharedWithERK7QString",
"_ZNK9YaQString12isSimpleTextEv",
"_ZNK9YaQString12toCaseFoldedEv",
"_ZNK9YaQString12toStdWStringEv",
"_ZNK9YaQString12toWCharArrayEPw",
"_ZNK9YaQString13isRightToLeftEv",
"_ZNK9YaQString13leftJustifiedEi5QCharb",
"_ZNK9YaQString13toHtmlEscapedEv",
"_ZNK9YaQString14rightJustifiedEi5QCharb",
"_ZNK9YaQString18localeAwareCompareERK10QStringRef",
"_ZNK9YaQString18localeAwareCompareERK7QString",
"_ZNK9YaQString2atEi",
"_ZNK9YaQString3argE5QChariS0_",
"_ZNK9YaQString3argEci5QChar",
"_ZNK9YaQString3argEdici5QChar",
"_ZNK9YaQString3argEiii5QChar",
"_ZNK9YaQString3argEjii5QChar",
"_ZNK9YaQString3argElii5QChar",
"_ZNK9YaQString3argEmii5QChar",
"_ZNK9YaQString3argERK7QStringi5QChar",
"_ZNK9YaQString3argERK7QStringS2_",
"_ZNK9YaQString3argERK7QStringS2_S2_",
"_ZNK9YaQString3argERK7QStringS2_S2_S2_",
"_ZNK9YaQString3argERK7QStringS2_S2_S2_S2_",
"_ZNK9YaQString3argERK7QStringS2_S2_S2_S2_S2_",
"_ZNK9YaQString3argERK7QStringS2_S2_S2_S2_S2_S2_",
"_ZNK9YaQString3argERK7QStringS2_S2_S2_S2_S2_S2_S2_",
"_ZNK9YaQString3argERK7QStringS2_S2_S2_S2_S2_S2_S2_S2_",
"_ZNK9YaQString3argEsii5QChar",
"_ZNK9YaQString3argEtii5QChar",
"_ZNK9YaQString3argExii5QChar",
"_ZNK9YaQString3argEyii5QChar",
"_ZNK9YaQString3endEv",
"_ZNK9YaQString3midEii",
"_ZNK9YaQString4cendEv",
"_ZNK9YaQString4dataEv",
"_ZNK9YaQString4leftEi",
"_ZNK9YaQString4sizeEv",
"_ZNK9YaQString5beginEv",
"_ZNK9YaQString5countE5QCharN2Qt15CaseSensitivityE",
"_ZNK9YaQString5countERK10QStringRefN2Qt15CaseSensitivityE",
"_ZNK9YaQString5countERK18QRegularExpression",
"_ZNK9YaQString5countERK7QRegExp",
"_ZNK9YaQString5countERK7QStringN2Qt15CaseSensitivityE",
"_ZNK9YaQString5countEv",
"_ZNK9YaQString5rightEi",
"_ZNK9YaQString5splitE5QCharN7QString13SplitBehaviorEN2Qt15CaseSensitivityE",
"_ZNK9YaQString5splitERK18QRegularExpressionN7QString13SplitBehaviorE",
"_ZNK9YaQString5splitERK7QRegExpN7QString13SplitBehaviorE",
"_ZNK9YaQString5splitERK7QStringNS0_13SplitBehaviorEN2Qt15CaseSensitivityE",
"_ZNK9YaQString5toIntEPbi",
"_ZNK9YaQString5utf16Ev",
"_ZNK9YaQString6cbeginEv",
"_ZNK9YaQString6isNullEv",
"_ZNK9YaQString6lengthEv",
"_ZNK9YaQString6midRefEii",
"_ZNK9YaQString6toLongEPbi",
"_ZNK9YaQString6toUcs4Ev",
"_ZNK9YaQString6toUIntEPbi",
"_ZNK9YaQString6toUtf8Ev",
"_ZNK9YaQString7compareE13QLatin1StringN2Qt15CaseSensitivityE",
"_ZNK9YaQString7compareERK10QStringRefN2Qt15CaseSensitivityE",
"_ZNK9YaQString7compareERK7QStringN2Qt15CaseSensitivityE",
"_ZNK9YaQString7indexOfE13QLatin1StringiN2Qt15CaseSensitivityE",
"_ZNK9YaQString7indexOfE5QChariN2Qt15CaseSensitivityE",
"_ZNK9YaQString7indexOfER7QRegExpi",
"_ZNK9YaQString7indexOfERK10QStringRefiN2Qt15CaseSensitivityE",
"_ZNK9YaQString7indexOfERK18QRegularExpressioni",
"_ZNK9YaQString7indexOfERK7QRegExpi",
"_ZNK9YaQString7indexOfERK7QStringiN2Qt15CaseSensitivityE",
"_ZNK9YaQString7isEmptyEv",
"_ZNK9YaQString7leftRefEi",
"_ZNK9YaQString7sectionE5QCharii6QFlagsIN7QString11SectionFlagEE",
"_ZNK9YaQString7sectionERK18QRegularExpressionii6QFlagsIN7QString11SectionFlagEE",
"_ZNK9YaQString7sectionERK7QRegExpii6QFlagsIN7QString11SectionFlagEE",
"_ZNK9YaQString7sectionERK7QStringii6QFlagsINS0_11SectionFlagEE",
"_ZNK9YaQString7toFloatEPb",
"_ZNK9YaQString7toLowerEv",
"_ZNK9YaQString7toShortEPbi",
"_ZNK9YaQString7toULongEPbi",
"_ZNK9YaQString7toUpperEv",
"_ZNK9YaQString7trimmedEv",
"_ZNK9YaQString7unicodeEv",
"_ZNK9YaQString8capacityEv",
"_ZNK9YaQString8constEndEv",
"_ZNK9YaQString8containsE13QLatin1StringN2Qt15CaseSensitivityE",
"_ZNK9YaQString8containsE5QCharN2Qt15CaseSensitivityE",
"_ZNK9YaQString8containsER7QRegExp",
"_ZNK9YaQString8containsERK10QStringRefN2Qt15CaseSensitivityE",
"_ZNK9YaQString8containsERK18QRegularExpression",
"_ZNK9YaQString8containsERK18QRegularExpressionP23QRegularExpressionMatch",
"_ZNK9YaQString8containsERK7QRegExp",
"_ZNK9YaQString8containsERK7QStringN2Qt15CaseSensitivityE",
"_ZNK9YaQString8endsWithE13QLatin1StringN2Qt15CaseSensitivityE",
"_ZNK9YaQString8endsWithE5QCharN2Qt15CaseSensitivityE",
"_ZNK9YaQString8endsWithERK10QStringRefN2Qt15CaseSensitivityE",
"_ZNK9YaQString8endsWithERK7QStringN2Qt15CaseSensitivityE",
"_ZNK9YaQString8repeatedEi",
"_ZNK9YaQString8rightRefEi",
"_ZNK9YaQString8toDoubleEPb",
"_ZNK9YaQString8toLatin1Ev",
"_ZNK9YaQString8toUShortEPbi",
"_ZNK9YaQString9constDataEv",
"_ZNK9YaQThread10isFinishedEv",
"_ZNK9YaQThread15eventDispatcherEv",
"_ZNK9YaQThread23isInterruptionRequestedEv",
"_ZNK9YaQThread8priorityEv",
"_ZNK9YaQThread9isRunningEv",
"_ZNK9YaQThread9stackSizeEv",
"_ZNK9YaQWidget10focusProxyEv",
"_ZNK9YaQWidget10isTopLevelEv",
"_ZNK9YaQWidget10redirectedEP6QPoint",
"_ZNK9YaQWidget10sizePolicyEv",
"_ZNK9YaQWidget10styleSheetEv",
"_ZNK9YaQWidget10underMouseEv",
"_ZNK9YaQWidget10windowIconEv",
"_ZNK9YaQWidget10windowRoleEv",
"_ZNK9YaQWidget10windowTypeEv",
"_ZNK9YaQWidget11acceptDropsEv",
"_ZNK9YaQWidget11focusPolicyEv",
"_ZNK9YaQWidget11focusWidgetEv",
"_ZNK9YaQWidget11fontMetricsEv",
"_ZNK9YaQWidget11initPainterEP8QPainter",
"_ZNK9YaQWidget11isEnabledToEPK7QWidget",
"_ZNK9YaQWidget11isMaximizedEv",
"_ZNK9YaQWidget11isMinimizedEv",
"_ZNK9YaQWidget11isVisibleToEPK7QWidget",
"_ZNK9YaQWidget11mapToGlobalERK6QPoint",
"_ZNK9YaQWidget11mapToParentERK6QPoint",
"_ZNK9YaQWidget11maximumSizeEv",
"_ZNK9YaQWidget11minimumSizeEv",
"_ZNK9YaQWidget11paintEngineEv",
"_ZNK9YaQWidget11windowFlagsEv",
"_ZNK9YaQWidget11windowStateEv",
"_ZNK9YaQWidget11windowTitleEv",
"_ZNK9YaQWidget12backingStoreEv",
"_ZNK9YaQWidget12childrenRectEv",
"_ZNK9YaQWidget12contentsRectEv",
"_ZNK9YaQWidget12isAncestorOfEPK7QWidget",
"_ZNK9YaQWidget12isFullScreenEv",
"_ZNK9YaQWidget12maximumWidthEv",
"_ZNK9YaQWidget12minimumWidthEv",
"_ZNK9YaQWidget12parentWidgetEv",
"_ZNK9YaQWidget12saveGeometryEv",
"_ZNK9YaQWidget12windowHandleEv",
"_ZNK9YaQWidget13frameGeometryEv",
"_ZNK9YaQWidget13internalWinIdEv",
"_ZNK9YaQWidget13isLeftToRightEv",
"_ZNK9YaQWidget13isRightToLeftEv",
"_ZNK9YaQWidget13mapFromGlobalERK6QPoint",
"_ZNK9YaQWidget13mapFromParentERK6QPoint",
"_ZNK9YaQWidget13maximumHeightEv",
"_ZNK9YaQWidget13minimumHeightEv",
"_ZNK9YaQWidget13sharedPainterEv",
"_ZNK9YaQWidget13sizeIncrementEv",
"_ZNK9YaQWidget13testAttributeEN2Qt15WidgetAttributeE",
"_ZNK9YaQWidget13visibleRegionEv",
"_ZNK9YaQWidget13windowOpacityEv",
"_ZNK9YaQWidget14accessibleNameEv",
"_ZNK9YaQWidget14backgroundRoleEv",
"_ZNK9YaQWidget14childrenRegionEv",
"_ZNK9YaQWidget14effectiveWinIdEv",
"_ZNK9YaQWidget14ensurePolishedEv",
"_ZNK9YaQWidget14foregroundRoleEv",
"_ZNK9YaQWidget14graphicsEffectEv",
"_ZNK9YaQWidget14heightForWidthEi",
"_ZNK9YaQWidget14isActiveWindowEv",
"_ZNK9YaQWidget14isEnabledToTLWEv",
"_ZNK9YaQWidget14normalGeometryEv",
"_ZNK9YaQWidget14topLevelWidgetEv",
"_ZNK9YaQWidget14updatesEnabledEv",
"_ZNK9YaQWidget14windowFilePathEv",
"_ZNK9YaQWidget14windowIconTextEv",
"_ZNK9YaQWidget14windowModalityEv",
"_ZNK9YaQWidget15contentsMarginsEv",
"_ZNK9YaQWidget15layoutDirectionEv",
"_ZNK9YaQWidget15minimumSizeHintEv",
"_ZNK9YaQWidget15toolTipDurationEv",
"_ZNK9YaQWidget16hasMouseTrackingEv",
"_ZNK9YaQWidget16inputMethodHintsEv",
"_ZNK9YaQWidget16inputMethodQueryEN2Qt16InputMethodQueryE",
"_ZNK9YaQWidget16isWindowModifiedEv",
"_ZNK9YaQWidget16nextInFocusChainEv",
"_ZNK9YaQWidget17contextMenuPolicyEv",
"_ZNK9YaQWidget17hasHeightForWidthEv",
"_ZNK9YaQWidget18autoFillBackgroundEv",
"_ZNK9YaQWidget18getContentsMarginsEPiS0_S0_S0_",
"_ZNK9YaQWidget18nativeParentWidgetEv",
"_ZNK9YaQWidget19graphicsProxyWidgetEv",
"_ZNK9YaQWidget1xEv",
"_ZNK9YaQWidget1yEv",
"_ZNK9YaQWidget20previousInFocusChainEv",
"_ZNK9YaQWidget21accessibleDescriptionEv",
"_ZNK9YaQWidget3posEv",
"_ZNK9YaQWidget4fontEv",
"_ZNK9YaQWidget4maskEv",
"_ZNK9YaQWidget4rectEv",
"_ZNK9YaQWidget4sizeEv",
"_ZNK9YaQWidget5mapToEPK7QWidgetRK6QPoint",
"_ZNK9YaQWidget5styleEv",
"_ZNK9YaQWidget5widthEv",
"_ZNK9YaQWidget5winIdEv",
"_ZNK9YaQWidget6cursorEv",
"_ZNK9YaQWidget6heightEv",
"_ZNK9YaQWidget6layoutEv",
"_ZNK9YaQWidget6localeEv",
"_ZNK9YaQWidget6metricEN12QPaintDevice17PaintDeviceMetricE",
"_ZNK9YaQWidget6windowEv",
"_ZNK9YaQWidget7actionsEv",
"_ZNK9YaQWidget7childAtEii",
"_ZNK9YaQWidget7childAtERK6QPoint",
"_ZNK9YaQWidget7devTypeEv",
"_ZNK9YaQWidget7isModalEv",
"_ZNK9YaQWidget7mapFromEPK7QWidgetRK6QPoint",
"_ZNK9YaQWidget7paletteEv",
"_ZNK9YaQWidget7toolTipEv",
"_ZNK9YaQWidget8baseSizeEv",
"_ZNK9YaQWidget8fontInfoEv",
"_ZNK9YaQWidget8geometryEv",
"_ZNK9YaQWidget8hasFocusEv",
"_ZNK9YaQWidget8isHiddenEv",
"_ZNK9YaQWidget8isWindowEv",
"_ZNK9YaQWidget8sizeHintEv",
"_ZNK9YaQWidget9frameSizeEv",
"_ZNK9YaQWidget9isEnabledEv",
"_ZNK9YaQWidget9isVisibleEv",
"_ZNK9YaQWidget9statusTipEv",
"_ZNK9YaQWidget9whatsThisEv",
"_ZThn8_N13YaQMainWindowD0Ev",
"_ZThn8_N13YaQMainWindowD1Ev",
"_ZThn8_N9YaQWidgetD0Ev",
"_ZThn8_N9YaQWidgetD1Ev",
"_ZThn8_NK9YaQWidget10redirectedEP6QPoint",
"_ZThn8_NK9YaQWidget11initPainterEP8QPainter",
"_ZThn8_NK9YaQWidget11paintEngineEv",
"_ZThn8_NK9YaQWidget13sharedPainterEv",
"_ZThn8_NK9YaQWidget6metricEN12QPaintDevice17PaintDeviceMetricE",
"_ZThn8_NK9YaQWidget7devTypeEv",
"_ZTI12YaQTcpServer",
"_ZTI12YaQTcpSocket",
"_ZTI13YaQMainWindow",
"_ZTI17YaQAbstractSocket",
"_ZTI17YaQGuiApplication",
"_ZTI18YaQCoreApplication",
"_ZTI7YaQFile",
"_ZTI8YaQTimer",
"_ZTI9YaQBitmap",
"_ZTI9YaQObject",
"_ZTI9YaQThread",
"_ZTI9YaQWidget",
"_ZTS12YaQTcpServer",
"_ZTS12YaQTcpSocket",
"_ZTS13YaQMainWindow",
"_ZTS17YaQAbstractSocket",
"_ZTS17YaQGuiApplication",
"_ZTS18YaQCoreApplication",
"_ZTS7YaQFile",
"_ZTS8YaQTimer",
"_ZTS9YaQBitmap",
"_ZTS9YaQObject",
"_ZTS9YaQThread",
"_ZTS9YaQWidget",
"_ZTV12YaQTcpServer",
"_ZTV12YaQTcpSocket",
"_ZTV13YaQMainWindow",
"_ZTV17YaQAbstractSocket",
"_ZTV17YaQGuiApplication",
"_ZTV18YaQCoreApplication",
"_ZTV7YaQFile",
"_ZTV8YaQTimer",
"_ZTV9YaQBitmap",
"_ZTV9YaQObject",
"_ZTV9YaQThread",
"_ZTV9YaQWidget",
